target datalayout = "e-m:e-p270:32:32-p271:32:32-p272:64:64-i64:64-i128:128-f80:128-n8:16:32:64-S128"
target triple = "x86_64-pc-linux-gnu"

%struct.IDAMemRec = type { double, ptr, ptr, i32, double, double, ptr, i32, ptr, ptr, i32, ptr, ptr, i32, i32, double, double, ptr, i32, i32, i32, ptr, ptr, i32, ptr, ptr, ptr, i32, double, i32, i32, double, ptr, ptr, i32, ptr, ptr, i32, i32, i32, double, ptr, ptr, [6 x ptr], [6 x double], [6 x double], [6 x double], [6 x double], [6 x double], ptr, ptr, ptr, ptr, ptr, ptr, ptr, ptr, ptr, ptr, ptr, ptr, ptr, ptr, ptr, [6 x ptr], ptr, ptr, ptr, ptr, [6 x ptr], ptr, ptr, ptr, ptr, ptr, ptr, ptr, ptr, ptr, ptr, ptr, ptr, ptr, ptr, [6 x ptr], ptr, ptr, ptr, ptr, ptr, double, ptr, ptr, i32, i32, i32, i32, i32, i32, i32, double, double, double, i32, double, i32, i32, i32, i32, double, double, double, double, double, double, double, double, double, double, double, double, double, double, i32, i32, i32, i32, i32, i64, double, i32, i64, i64, i64, i64, i64, i64, i64, i64, i64, i64, i64, i64, i64, i64, i64, i64, i64, i64, i64, i64, i64, i64, i64, i64, ptr, ptr, ptr, i32, i32, i32, i32, i32, i32, i32, i32, i32, i32, i32, i32, i32, ptr, ptr, ptr, ptr, ptr, ptr, i32, i32, i32, i32, i32, i32, double, double, double, ptr, i32, ptr, ptr, double, double, double, ptr, ptr, ptr, double, double, i32, i32, i64, ptr, i32, i32, ptr, i32 }
%struct.IDADlsMemRec = type { i32, i64, i64, i64, i64, i32, ptr, ptr, ptr, ptr, ptr, ptr, i64, i64, i64 }

; Function Attrs: nounwind uwtable
define internal i32 @IDADenseFree(ptr noundef %0) #0 {
  %2 = alloca ptr, align 8
  %3 = alloca ptr, align 8
  store ptr %0, ptr %2, align 8, !tbaa !9
  call void @llvm.lifetime.start.p0(i64 8, ptr %3) #5
  %4 = load ptr, ptr %2, align 8, !tbaa !9
  %5 = getelementptr inbounds nuw %struct.IDAMemRec, ptr %4, i32 0, i32 176
  %6 = load ptr, ptr %5, align 8, !tbaa !47
  store ptr %6, ptr %3, align 8, !tbaa !33
  %7 = load ptr, ptr %3, align 8, !tbaa !33
  %8 = getelementptr inbounds nuw %struct.IDADlsMemRec, ptr %7, i32 0, i32 9
  %9 = load ptr, ptr %8, align 8, !tbaa !45
  call void @DestroyMat(ptr noundef %9)
  %10 = load ptr, ptr %3, align 8, !tbaa !33
  %11 = getelementptr inbounds nuw %struct.IDADlsMemRec, ptr %10, i32 0, i32 11
  %12 = load ptr, ptr %11, align 8, !tbaa !46
  call void @DestroyArray(ptr noundef %12)
  %13 = load ptr, ptr %2, align 8, !tbaa !9
  %14 = getelementptr inbounds nuw %struct.IDAMemRec, ptr %13, i32 0, i32 176
  %15 = load ptr, ptr %14, align 8, !tbaa !47
  call void @free(ptr noundef %15) #5
  %16 = load ptr, ptr %2, align 8, !tbaa !9
  %17 = getelementptr inbounds nuw %struct.IDAMemRec, ptr %16, i32 0, i32 176
  store ptr null, ptr %17, align 8, !tbaa !47
  call void @llvm.lifetime.end.p0(i64 8, ptr %3) #5
  ret i32 0
}